target datalayout = "e-m:e-p270:32:32-p271:32:32-p272:64:64-i64:64-i128:128-f80:128-n8:16:32:64-S128"
target triple = "x86_64-pc-linux-gnu"

%struct.Aig_Man_t_ = type { ptr, ptr, ptr, ptr, ptr, ptr, ptr, %struct.Aig_Obj_t_, i32, i32, i32, i32, i32, i32, [7 x i32], i32, ptr, i32, ptr, i32, ptr, i32, i32, i32, ptr, i32, i32, i32, i32, i32, ptr, ptr, i32, ptr, ptr, i32, ptr, ptr, i32, i32, i32, ptr, ptr, ptr, ptr, ptr, ptr, ptr, ptr, ptr, ptr, ptr, ptr, ptr, ptr, i32, ptr, ptr, ptr, ptr, i32, i64, i64, i64, ptr, ptr }
%struct.Aig_Obj_t_ = type { %union.anon, ptr, ptr, i64, i32, i32, %union.anon.0 }
%union.anon = type { ptr }
%union.anon.0 = type { ptr }
%struct.Abc_Cex_t_ = type { i32, i32, i32, i32, i32, [0 x i32] }
%struct.Vec_Ptr_t_ = type { i32, i32, ptr }

@.str.6 = private unnamed_addr constant [103 x i8] c"Llb4_Nonlin4NormalizeCex(): The number of flops in the original and reparametrized AIGs do not agree.\0A\00", align 1
@.str.7 = private unnamed_addr constant [102 x i8] c"Llb4_Nonlin4NormalizeCex(): The number of PIs in the reparametrized AIG and in the CEX do not agree.\0A\00", align 1
@.str.8 = private unnamed_addr constant [77 x i8] c"Llb4_Nonlin4NormalizeCex(): The given CEX does not fail outputs of pAigRpm.\0A\00", align 1

; Function Attrs: inlinehint nounwind uwtable
define internal void @Vec_PtrFree(ptr noundef %0) #2 {
  %2 = alloca ptr, align 8
  store ptr %0, ptr %2, align 8, !tbaa !8
  %3 = load ptr, ptr %2, align 8, !tbaa !8
  %4 = getelementptr inbounds nuw %struct.Vec_Ptr_t_, ptr %3, i32 0, i32 2
  %5 = load ptr, ptr %4, align 8, !tbaa !52
  %6 = icmp ne ptr %5, null
  br i1 %6, label %7, label %13

7:                                                ; preds = %1
  %8 = load ptr, ptr %2, align 8, !tbaa !8
  %9 = getelementptr inbounds nuw %struct.Vec_Ptr_t_, ptr %8, i32 0, i32 2
  %10 = load ptr, ptr %9, align 8, !tbaa !52
  call void @free(ptr noundef %10) #10
  %11 = load ptr, ptr %2, align 8, !tbaa !8
  %12 = getelementptr inbounds nuw %struct.Vec_Ptr_t_, ptr %11, i32 0, i32 2
  store ptr null, ptr %12, align 8, !tbaa !52
  br label %14

13:                                               ; preds = %1
  br label %14

14:                                               ; preds = %13, %7
  %15 = load ptr, ptr %2, align 8, !tbaa !8
  %16 = icmp ne ptr %15, null
  br i1 %16, label %17, label %19

17:                                               ; preds = %14
  %18 = load ptr, ptr %2, align 8, !tbaa !8
  call void @free(ptr noundef %18) #10
  store ptr null, ptr %2, align 8, !tbaa !8
  br label %20

19:                                               ; preds = %14
  br label %20

20:                                               ; preds = %19, %17
  ret void
}

; Function Attrs: inlinehint nounwind uwtable
define internal i32 @Saig_ManPiNum(ptr noundef %0) #2 {
  %2 = alloca ptr, align 8
  store ptr %0, ptr %2, align 8, !tbaa !3
  %3 = load ptr, ptr %2, align 8, !tbaa !3
  %4 = getelementptr inbounds nuw %struct.Aig_Man_t_, ptr %3, i32 0, i32 9
  %5 = load i32, ptr %4, align 4, !tbaa !49
  ret i32 %5
}

; Function Attrs: inlinehint nounwind uwtable
define internal i32 @Saig_ManRegNum(ptr noundef %0) #2 {
  %2 = alloca ptr, align 8
  store ptr %0, ptr %2, align 8, !tbaa !3
  %3 = load ptr, ptr %2, align 8, !tbaa !3
  %4 = getelementptr inbounds nuw %struct.Aig_Man_t_, ptr %3, i32 0, i32 8
  %5 = load i32, ptr %4, align 8, !tbaa !12
  ret i32 %5
}

; Function Attrs: nounwind uwtable
define ptr @Llb4_Nonlin4NormalizeCex(ptr noundef %0, ptr noundef %1, ptr noundef %2) #0 {
  %4 = alloca ptr, align 8
  %5 = alloca ptr, align 8
  %6 = alloca ptr, align 8
  %7 = alloca ptr, align 8
  %8 = alloca ptr, align 8
  %9 = alloca ptr, align 8
  %10 = alloca i32, align 4
  store ptr %0, ptr %5, align 8, !tbaa !3
  store ptr %1, ptr %6, align 8, !tbaa !3
  store ptr %2, ptr %7, align 8, !tbaa !28
  call void @llvm.lifetime.start.p0(i64 8, ptr %8) #10
  call void @llvm.lifetime.start.p0(i64 8, ptr %9) #10
  %11 = load ptr, ptr %5, align 8, !tbaa !3
  %12 = call i32 @Saig_ManRegNum(ptr noundef %11)
  %13 = load ptr, ptr %6, align 8, !tbaa !3
  %14 = call i32 @Saig_ManRegNum(ptr noundef %13)
  %15 = icmp ne i32 %12, %14
  br i1 %15, label %16, label %18

16:                                               ; preds = %3
  %17 = call i32 (ptr, ...) @printf(ptr noundef @.str.6)
  store ptr null, ptr %4, align 8
  store i32 1, ptr %10, align 4
  br label %43

18:                                               ; preds = %3
  %19 = load ptr, ptr %6, align 8, !tbaa !3
  %20 = call i32 @Saig_ManPiNum(ptr noundef %19)
  %21 = load ptr, ptr %7, align 8, !tbaa !28
  %22 = getelementptr inbounds nuw %struct.Abc_Cex_t_, ptr %21, i32 0, i32 3
  %23 = load i32, ptr %22, align 4, !tbaa !88
  %24 = icmp ne i32 %20, %23
  br i1 %24, label %25, label %27

25:                                               ; preds = %18
  %26 = call i32 (ptr, ...) @printf(ptr noundef @.str.7)
  store ptr null, ptr %4, align 8
  store i32 1, ptr %10, align 4
  br label %43

27:                                               ; preds = %18
  %28 = load ptr, ptr %6, align 8, !tbaa !3
  %29 = load ptr, ptr %7, align 8, !tbaa !28
  %30 = call ptr @Llb4_Nonlin4VerifyCex(ptr noundef %28, ptr noundef %29)
  store ptr %30, ptr %9, align 8, !tbaa !8
  %31 = load ptr, ptr %9, align 8, !tbaa !8
  %32 = icmp eq ptr %31, null
  br i1 %32, label %33, label %34

33:                                               ; preds = %27
  call void (i32, ptr, ...) @Abc_Print(i32 noundef 1, ptr noundef @.str.8)
  store ptr null, ptr %4, align 8
  store i32 1, ptr %10, align 4
  br label %43

34:                                               ; preds = %27
  %35 = load ptr, ptr %5, align 8, !tbaa !3
  %36 = load ptr, ptr %9, align 8, !tbaa !8
  %37 = load ptr, ptr %7, align 8, !tbaa !28
  %38 = getelementptr inbounds nuw %struct.Abc_Cex_t_, ptr %37, i32 0, i32 0
  %39 = load i32, ptr %38, align 4, !tbaa !31
  %40 = call ptr @Llb4_Nonlin4TransformCex(ptr noundef %35, ptr noundef %36, i32 noundef %39, i32 noundef 0)
  store ptr %40, ptr %8, align 8, !tbaa !28
  %41 = load ptr, ptr %9, align 8, !tbaa !8
  call void @Vec_PtrFree(ptr noundef %41)
  %42 = load ptr, ptr %8, align 8, !tbaa !28
  store ptr %42, ptr %4, align 8
  store i32 1, ptr %10, align 4
  br label %43

43:                                               ; preds = %34, %33, %25, %16
  call void @llvm.lifetime.end.p0(i64 8, ptr %9) #10
  call void @llvm.lifetime.end.p0(i64 8, ptr %8) #10
  %44 = load ptr, ptr %4, align 8
  ret ptr %44
}