; Function Attrs: nounwind uwtable
define noundef ptr @Llb4_Nonlin4NormalizeCex(ptr noundef %0, ptr noundef %1, ptr noundef captures(none) %2) local_unnamed_addr #0 {
  %4 = getelementptr i8, ptr %0, i64 104
  %.val16 = load i32, ptr %4, align 8, !tbaa !3
  %5 = getelementptr i8, ptr %1, i64 104
  %.val = load i32, ptr %5, align 8, !tbaa !3
  %.not = icmp eq i32 %.val16, %.val
  br i1 %.not, label %7, label %6

6:                                                ; preds = %3
  %puts15 = tail call i32 @puts(ptr nonnull dereferenceable(1) @str.6)
  br label %22

7:                                                ; preds = %3
  %8 = getelementptr i8, ptr %1, i64 108
  %.val17 = load i32, ptr %8, align 4, !tbaa !22
  %9 = getelementptr inbounds nuw i8, ptr %2, i64 12
  %10 = load i32, ptr %9, align 4, !tbaa !77
  %.not14 = icmp eq i32 %.val17, %10
  br i1 %.not14, label %12, label %11

11:                                               ; preds = %7
  %puts = tail call i32 @puts(ptr nonnull dereferenceable(1) @str.5)
  br label %22

12:                                               ; preds = %7
  %13 = tail call ptr @Llb4_Nonlin4VerifyCex(ptr noundef nonnull %1, ptr noundef nonnull %2)
  %14 = icmp eq ptr %13, null
  br i1 %14, label %15, label %16

15:                                               ; preds = %12
  tail call void (i32, ptr, ...) @Abc_Print(i32 poison, ptr nonnull poison)
  br label %22

16:                                               ; preds = %12
  %17 = load i32, ptr %2, align 4, !tbaa !27
  %18 = tail call ptr @Llb4_Nonlin4TransformCex(ptr noundef nonnull %0, ptr noundef nonnull %13, i32 noundef %17, i32 poison)
  %19 = getelementptr inbounds nuw i8, ptr %13, i64 8
  %20 = load ptr, ptr %19, align 8, !tbaa !28
  %.not.i = icmp eq ptr %20, null
  br i1 %.not.i, label %Vec_PtrFree.exit, label %21

21:                                               ; preds = %16
  tail call void @free(ptr noundef nonnull %20) #12
  br label %Vec_PtrFree.exit

Vec_PtrFree.exit:                                 ; preds = %16, %21
  tail call void @free(ptr noundef nonnull %13) #12
  br label %22

22:                                               ; preds = %Vec_PtrFree.exit, %15, %11, %6
  %.0 = phi ptr [ null, %6 ], [ null, %11 ], [ null, %15 ], [ %18, %Vec_PtrFree.exit ]
  ret ptr %.0
}